; Function Attrs: mustprogress uwtable
define hidden void @_ZN4cvc56parser6Parser14setStringInputERKNSt7__cxx1112basic_stringIcSt11char_traitsIcESaIcEEES9_(ptr nocapture noundef nonnull align 8 dereferenceable(41) %this, ptr noundef nonnull align 8 dereferenceable(32) %input, ptr noundef nonnull align 8 dereferenceable(32) %name) local_unnamed_addr #4 align 2 personality ptr @__gxx_personality_v0 {
entry:
  %ref.tmp = alloca %"class.std::unique_ptr", align 8
  call void @_ZN4cvc56parser5Input13mkStringInputERKNSt7__cxx1112basic_stringIcSt11char_traitsIcESaIcEEE(ptr nonnull sret(%"class.std::unique_ptr") align 8 %ref.tmp, ptr noundef nonnull align 8 dereferenceable(32) %input)
  %d_flexInput = getelementptr inbounds i8, ptr %this, i64 32
  %0 = load ptr, ptr %ref.tmp, align 8
  store ptr null, ptr %ref.tmp, align 8
  %1 = load ptr, ptr %d_flexInput, align 8
  store ptr %0, ptr %d_flexInput, align 8
  %tobool.not.i.i.i.i = icmp eq ptr %1, null
  br i1 %tobool.not.i.i.i.i, label %_ZNSt10unique_ptrIN4cvc56parser5InputESt14default_deleteIS2_EED2Ev.exit, label %_ZNSt10unique_ptrIN4cvc56parser5InputESt14default_deleteIS2_EEaSEOS5_.exit

_ZNSt10unique_ptrIN4cvc56parser5InputESt14default_deleteIS2_EEaSEOS5_.exit: ; preds = %entry
  %vtable.i.i.i.i.i = load ptr, ptr %1, align 8
  %vfn.i.i.i.i.i = getelementptr inbounds i8, ptr %vtable.i.i.i.i.i, i64 8
  %2 = load ptr, ptr %vfn.i.i.i.i.i, align 8
  call void %2(ptr noundef nonnull align 8 dereferenceable(8) %1) #18
  %.pr = load ptr, ptr %ref.tmp, align 8
  %cmp.not.i = icmp eq ptr %.pr, null
  br i1 %cmp.not.i, label %_ZNSt10unique_ptrIN4cvc56parser5InputESt14default_deleteIS2_EED2Ev.exit, label %_ZNKSt14default_deleteIN4cvc56parser5InputEEclEPS2_.exit.i

_ZNKSt14default_deleteIN4cvc56parser5InputEEclEPS2_.exit.i: ; preds = %_ZNSt10unique_ptrIN4cvc56parser5InputESt14default_deleteIS2_EEaSEOS5_.exit
  %vtable.i.i = load ptr, ptr %.pr, align 8
  %vfn.i.i = getelementptr inbounds i8, ptr %vtable.i.i, i64 8
  %3 = load ptr, ptr %vfn.i.i, align 8
  call void %3(ptr noundef nonnull align 8 dereferenceable(8) %.pr) #18
  br label %_ZNSt10unique_ptrIN4cvc56parser5InputESt14default_deleteIS2_EED2Ev.exit

_ZNSt10unique_ptrIN4cvc56parser5InputESt14default_deleteIS2_EED2Ev.exit: ; preds = %entry, %_ZNSt10unique_ptrIN4cvc56parser5InputESt14default_deleteIS2_EEaSEOS5_.exit, %_ZNKSt14default_deleteIN4cvc56parser5InputEEclEPS2_.exit.i
  store ptr null, ptr %ref.tmp, align 8
  %d_done.i = getelementptr inbounds i8, ptr %this, i64 40
  store i8 0, ptr %d_done.i, align 8
  %d_lex.i = getelementptr inbounds i8, ptr %this, i64 24
  %4 = load ptr, ptr %d_lex.i, align 8
  %5 = load ptr, ptr %d_flexInput, align 8
  %vtable.i = load ptr, ptr %4, align 8
  %vfn.i = getelementptr inbounds i8, ptr %vtable.i, i64 16
  %6 = load ptr, ptr %vfn.i, align 8
  call void %6(ptr noundef nonnull align 8 dereferenceable(32892) %4, ptr noundef %5, ptr noundef nonnull align 8 dereferenceable(32) %name)
  ret void
}